target datalayout = "e-m:e-p270:32:32-p271:32:32-p272:64:64-i64:64-i128:128-f80:128-n8:16:32:64-S128"
target triple = "x86_64-pc-linux-gnu"

%"class.toku::keyrange" = type <{ %struct.__toku_dbt, %struct.__toku_dbt, ptr, ptr, i8, [7 x i8] }>
%struct.__toku_dbt = type { ptr, i64, i64, i32 }
%"class.toku::comparator" = type <{ ptr, ptr, i8, [7 x i8] }>

; Function Attrs: inlinehint mustprogress nounwind uwtable
define linkonce_odr noundef zeroext i1 @_ZNK4toku10comparator20dbt_has_memcmp_magicEPK10__toku_dbt(ptr noundef nonnull align 8 dereferenceable(17) %0, ptr noundef %1) #6 comdat align 2 {
  %3 = alloca ptr, align 8
  %4 = alloca ptr, align 8
  store ptr %0, ptr %3, align 8, !tbaa !25
  store ptr %1, ptr %4, align 8, !tbaa !9
  %5 = load ptr, ptr %3, align 8
  %6 = load ptr, ptr %4, align 8, !tbaa !9
  %7 = getelementptr inbounds nuw %struct.__toku_dbt, ptr %6, i32 0, i32 0
  %8 = load ptr, ptr %7, align 8, !tbaa !34
  %9 = load i8, ptr %8, align 1, !tbaa !35
  %10 = sext i8 %9 to i32
  %11 = getelementptr inbounds nuw %"class.toku::comparator", ptr %5, i32 0, i32 2
  %12 = load i8, ptr %11, align 8, !tbaa !27
  %13 = zext i8 %12 to i32
  %14 = icmp eq i32 %10, %13
  ret i1 %14
}

; Function Attrs: mustprogress uwtable
define linkonce_odr noundef i32 @_ZNK4toku10comparatorclEPK10__toku_dbtS3_(ptr noundef nonnull align 8 dereferenceable(17) %0, ptr noundef %1, ptr noundef %2) #0 comdat align 2 {
  %4 = alloca i32, align 4
  %5 = alloca ptr, align 8
  %6 = alloca ptr, align 8
  %7 = alloca ptr, align 8
  store ptr %0, ptr %5, align 8, !tbaa !25
  store ptr %1, ptr %6, align 8, !tbaa !9
  store ptr %2, ptr %7, align 8, !tbaa !9
  %8 = load ptr, ptr %5, align 8
  %9 = load ptr, ptr %6, align 8, !tbaa !9
  %10 = call noundef zeroext i1 @_Z20toku_dbt_is_infinitePK10__toku_dbt(ptr noundef %9)
  br i1 %10, label %14, label %11

11:                                               ; preds = %3
  %12 = load ptr, ptr %7, align 8, !tbaa !9
  %13 = call noundef zeroext i1 @_Z20toku_dbt_is_infinitePK10__toku_dbt(ptr noundef %12)
  br label %14

14:                                               ; preds = %11, %3
  %15 = phi i1 [ true, %3 ], [ %13, %11 ]
  %16 = zext i1 %15 to i64
  %17 = call i64 @llvm.expect.i64(i64 %16, i64 0)
  %18 = icmp ne i64 %17, 0
  br i1 %18, label %19, label %23

19:                                               ; preds = %14
  %20 = load ptr, ptr %6, align 8, !tbaa !9
  %21 = load ptr, ptr %7, align 8, !tbaa !9
  %22 = call noundef i32 @_Z25toku_dbt_infinite_comparePK10__toku_dbtS1_(ptr noundef %20, ptr noundef %21)
  store i32 %22, ptr %4, align 4
  br label %49

23:                                               ; preds = %14
  %24 = getelementptr inbounds nuw %"class.toku::comparator", ptr %8, i32 0, i32 2
  %25 = load i8, ptr %24, align 8, !tbaa !27
  %26 = zext i8 %25 to i32
  %27 = icmp ne i32 %26, 0
  br i1 %27, label %28, label %41

28:                                               ; preds = %23
  %29 = load ptr, ptr %6, align 8, !tbaa !9
  %30 = call noundef zeroext i1 @_ZNK4toku10comparator20dbt_has_memcmp_magicEPK10__toku_dbt(ptr noundef nonnull align 8 dereferenceable(17) %8, ptr noundef %29)
  br i1 %30, label %31, label %41

31:                                               ; preds = %28
  %32 = load ptr, ptr %7, align 8, !tbaa !9
  %33 = call noundef zeroext i1 @_ZNK4toku10comparator20dbt_has_memcmp_magicEPK10__toku_dbt(ptr noundef nonnull align 8 dereferenceable(17) %8, ptr noundef %32)
  %34 = zext i1 %33 to i64
  %35 = call i64 @llvm.expect.i64(i64 %34, i64 1)
  %36 = icmp ne i64 %35, 0
  br i1 %36, label %37, label %41

37:                                               ; preds = %31
  %38 = load ptr, ptr %6, align 8, !tbaa !9
  %39 = load ptr, ptr %7, align 8, !tbaa !9
  %40 = call noundef i32 @_Z24toku_builtin_compare_funPK10__toku_dbtS1_(ptr noundef %38, ptr noundef %39)
  store i32 %40, ptr %4, align 4
  br label %49

41:                                               ; preds = %31, %28, %23
  %42 = getelementptr inbounds nuw %"class.toku::comparator", ptr %8, i32 0, i32 0
  %43 = load ptr, ptr %42, align 8, !tbaa !29
  %44 = getelementptr inbounds nuw %"class.toku::comparator", ptr %8, i32 0, i32 1
  %45 = load ptr, ptr %44, align 8, !tbaa !30
  %46 = load ptr, ptr %6, align 8, !tbaa !9
  %47 = load ptr, ptr %7, align 8, !tbaa !9
  %48 = call noundef i32 %43(ptr noundef %45, ptr noundef %46, ptr noundef %47)
  store i32 %48, ptr %4, align 4
  br label %49

49:                                               ; preds = %41, %37, %19
  %50 = load i32, ptr %4, align 4
  ret i32 %50
}

; Function Attrs: mustprogress nounwind uwtable
define noundef ptr @_ZNK4toku8keyrange12get_left_keyEv(ptr noundef nonnull align 8 dereferenceable(81) %0) #2 align 2 {
  %2 = alloca ptr, align 8
  %3 = alloca ptr, align 8
  store ptr %0, ptr %3, align 8, !tbaa !4
  %4 = load ptr, ptr %3, align 8
  %5 = getelementptr inbounds nuw %"class.toku::keyrange", ptr %4, i32 0, i32 2
  %6 = load ptr, ptr %5, align 8, !tbaa !11
  %7 = icmp ne ptr %6, null
  br i1 %7, label %8, label %11

8:                                                ; preds = %1
  %9 = getelementptr inbounds nuw %"class.toku::keyrange", ptr %4, i32 0, i32 2
  %10 = load ptr, ptr %9, align 8, !tbaa !11
  store ptr %10, ptr %2, align 8
  br label %13

11:                                               ; preds = %1
  %12 = getelementptr inbounds nuw %"class.toku::keyrange", ptr %4, i32 0, i32 0
  store ptr %12, ptr %2, align 8
  br label %13

13:                                               ; preds = %11, %8
  %14 = load ptr, ptr %2, align 8
  ret ptr %14
}

; Function Attrs: mustprogress nounwind uwtable
define noundef ptr @_ZNK4toku8keyrange13get_right_keyEv(ptr noundef nonnull align 8 dereferenceable(81) %0) #2 align 2 {
  %2 = alloca ptr, align 8
  %3 = alloca ptr, align 8
  store ptr %0, ptr %3, align 8, !tbaa !4
  %4 = load ptr, ptr %3, align 8
  %5 = getelementptr inbounds nuw %"class.toku::keyrange", ptr %4, i32 0, i32 3
  %6 = load ptr, ptr %5, align 8, !tbaa !17
  %7 = icmp ne ptr %6, null
  br i1 %7, label %8, label %11

8:                                                ; preds = %1
  %9 = getelementptr inbounds nuw %"class.toku::keyrange", ptr %4, i32 0, i32 3
  %10 = load ptr, ptr %9, align 8, !tbaa !17
  store ptr %10, ptr %2, align 8
  br label %13

11:                                               ; preds = %1
  %12 = getelementptr inbounds nuw %"class.toku::keyrange", ptr %4, i32 0, i32 1
  store ptr %12, ptr %2, align 8
  br label %13

13:                                               ; preds = %11, %8
  %14 = load ptr, ptr %2, align 8
  ret ptr %14
}

; Function Attrs: mustprogress uwtable
define noundef i32 @_ZNK4toku8keyrange7compareERKNS_10comparatorERKS0_(ptr noundef nonnull align 8 dereferenceable(81) %0, ptr noundef nonnull align 8 dereferenceable(17) %1, ptr noundef nonnull align 8 dereferenceable(81) %2) #0 align 2 {
  %4 = alloca i32, align 4
  %5 = alloca ptr, align 8
  %6 = alloca ptr, align 8
  %7 = alloca ptr, align 8
  store ptr %0, ptr %5, align 8, !tbaa !4
  store ptr %1, ptr %6, align 8, !tbaa !25
  store ptr %2, ptr %7, align 8, !tbaa !4
  %8 = load ptr, ptr %5, align 8
  %9 = load ptr, ptr %6, align 8, !tbaa !25
  %10 = call noundef ptr @_ZNK4toku8keyrange13get_right_keyEv(ptr noundef nonnull align 8 dereferenceable(81) %8)
  %11 = load ptr, ptr %7, align 8, !tbaa !4
  %12 = call noundef ptr @_ZNK4toku8keyrange12get_left_keyEv(ptr noundef nonnull align 8 dereferenceable(81) %11)
  %13 = call noundef i32 @_ZNK4toku10comparatorclEPK10__toku_dbtS3_(ptr noundef nonnull align 8 dereferenceable(17) %9, ptr noundef %10, ptr noundef %12)
  %14 = icmp slt i32 %13, 0
  br i1 %14, label %15, label %16

15:                                               ; preds = %3
  store i32 1, ptr %4, align 4
  br label %40

16:                                               ; preds = %3
  %17 = load ptr, ptr %6, align 8, !tbaa !25
  %18 = call noundef ptr @_ZNK4toku8keyrange12get_left_keyEv(ptr noundef nonnull align 8 dereferenceable(81) %8)
  %19 = load ptr, ptr %7, align 8, !tbaa !4
  %20 = call noundef ptr @_ZNK4toku8keyrange13get_right_keyEv(ptr noundef nonnull align 8 dereferenceable(81) %19)
  %21 = call noundef i32 @_ZNK4toku10comparatorclEPK10__toku_dbtS3_(ptr noundef nonnull align 8 dereferenceable(17) %17, ptr noundef %18, ptr noundef %20)
  %22 = icmp sgt i32 %21, 0
  br i1 %22, label %23, label %24

23:                                               ; preds = %16
  store i32 2, ptr %4, align 4
  br label %40

24:                                               ; preds = %16
  %25 = load ptr, ptr %6, align 8, !tbaa !25
  %26 = call noundef ptr @_ZNK4toku8keyrange12get_left_keyEv(ptr noundef nonnull align 8 dereferenceable(81) %8)
  %27 = load ptr, ptr %7, align 8, !tbaa !4
  %28 = call noundef ptr @_ZNK4toku8keyrange12get_left_keyEv(ptr noundef nonnull align 8 dereferenceable(81) %27)
  %29 = call noundef i32 @_ZNK4toku10comparatorclEPK10__toku_dbtS3_(ptr noundef nonnull align 8 dereferenceable(17) %25, ptr noundef %26, ptr noundef %28)
  %30 = icmp eq i32 %29, 0
  br i1 %30, label %31, label %39

31:                                               ; preds = %24
  %32 = load ptr, ptr %6, align 8, !tbaa !25
  %33 = call noundef ptr @_ZNK4toku8keyrange13get_right_keyEv(ptr noundef nonnull align 8 dereferenceable(81) %8)
  %34 = load ptr, ptr %7, align 8, !tbaa !4
  %35 = call noundef ptr @_ZNK4toku8keyrange13get_right_keyEv(ptr noundef nonnull align 8 dereferenceable(81) %34)
  %36 = call noundef i32 @_ZNK4toku10comparatorclEPK10__toku_dbtS3_(ptr noundef nonnull align 8 dereferenceable(17) %32, ptr noundef %33, ptr noundef %35)
  %37 = icmp eq i32 %36, 0
  br i1 %37, label %38, label %39

38:                                               ; preds = %31
  store i32 0, ptr %4, align 4
  br label %40

39:                                               ; preds = %31, %24
  store i32 3, ptr %4, align 4
  br label %40

40:                                               ; preds = %39, %38, %23, %15
  %41 = load i32, ptr %4, align 4
  ret i32 %41
}