; Function Attrs: mustprogress uwtable
define noundef range(i32 0, 4) i32 @_ZNK4toku8keyrange7compareERKNS_10comparatorERKS0_(ptr noundef nonnull align 8 dereferenceable(81) %0, ptr noundef nonnull readonly align 8 captures(none) dereferenceable(17) %1, ptr noundef nonnull align 8 dereferenceable(81) %2) local_unnamed_addr #0 align 2 {
  %4 = getelementptr inbounds nuw i8, ptr %0, i64 72
  %5 = load ptr, ptr %4, align 8, !tbaa !15
  %.not.i = icmp eq ptr %5, null
  %6 = getelementptr inbounds nuw i8, ptr %0, i64 32
  %.0.i = select i1 %.not.i, ptr %6, ptr %5
  %7 = getelementptr inbounds nuw i8, ptr %2, i64 64
  %8 = load ptr, ptr %7, align 8, !tbaa !14
  %.not.i9 = icmp eq ptr %8, null
  %..i = select i1 %.not.i9, ptr %2, ptr %8
  %9 = tail call noundef zeroext i1 @_Z20toku_dbt_is_infinitePK10__toku_dbt(ptr noundef nonnull %.0.i)
  br i1 %9, label %.critedge.i, label %10, !prof !22

10:                                               ; preds = %3
  %11 = tail call noundef zeroext i1 @_Z20toku_dbt_is_infinitePK10__toku_dbt(ptr noundef nonnull %..i)
  br i1 %11, label %.critedge.i, label %13, !prof !22

.critedge.i:                                      ; preds = %10, %3
  %12 = tail call noundef i32 @_Z25toku_dbt_infinite_comparePK10__toku_dbtS1_(ptr noundef nonnull %.0.i, ptr noundef nonnull %..i)
  br label %_ZNK4toku10comparatorclEPK10__toku_dbtS3_.exit

13:                                               ; preds = %10
  %14 = getelementptr inbounds nuw i8, ptr %1, i64 16
  %15 = load i8, ptr %14, align 8, !tbaa !23
  %.not.i10 = icmp eq i8 %15, 0
  br i1 %.not.i10, label %28, label %16

16:                                               ; preds = %13
  %17 = load ptr, ptr %.0.i, align 8, !tbaa !25
  %18 = load i8, ptr %17, align 1, !tbaa !26
  %19 = sext i8 %18 to i32
  %20 = zext i8 %15 to i32
  %21 = icmp eq i32 %19, %20
  br i1 %21, label %22, label %28

22:                                               ; preds = %16
  %23 = load ptr, ptr %..i, align 8, !tbaa !25
  %24 = load i8, ptr %23, align 1, !tbaa !26
  %25 = icmp eq i8 %24, %18
  br i1 %25, label %26, label %28, !prof !27

26:                                               ; preds = %22
  %27 = tail call noundef i32 @_Z24toku_builtin_compare_funPK10__toku_dbtS1_(ptr noundef nonnull %.0.i, ptr noundef nonnull %..i)
  br label %_ZNK4toku10comparatorclEPK10__toku_dbtS3_.exit

28:                                               ; preds = %22, %16, %13
  %29 = load ptr, ptr %1, align 8, !tbaa !28
  %30 = getelementptr inbounds nuw i8, ptr %1, i64 8
  %31 = load ptr, ptr %30, align 8, !tbaa !29
  %32 = tail call noundef i32 %29(ptr noundef %31, ptr noundef nonnull %.0.i, ptr noundef nonnull %..i)
  br label %_ZNK4toku10comparatorclEPK10__toku_dbtS3_.exit

_ZNK4toku10comparatorclEPK10__toku_dbtS3_.exit:   ; preds = %.critedge.i, %26, %28
  %.0.i11 = phi i32 [ %12, %.critedge.i ], [ %27, %26 ], [ %32, %28 ]
  %33 = icmp slt i32 %.0.i11, 0
  br i1 %33, label %122, label %34

34:                                               ; preds = %_ZNK4toku10comparatorclEPK10__toku_dbtS3_.exit
  %35 = getelementptr inbounds nuw i8, ptr %0, i64 64
  %36 = load ptr, ptr %35, align 8, !tbaa !14
  %.not.i12 = icmp eq ptr %36, null
  %..i13 = select i1 %.not.i12, ptr %0, ptr %36
  %37 = getelementptr inbounds nuw i8, ptr %2, i64 72
  %38 = load ptr, ptr %37, align 8, !tbaa !15
  %.not.i14 = icmp eq ptr %38, null
  %39 = getelementptr inbounds nuw i8, ptr %2, i64 32
  %.0.i15 = select i1 %.not.i14, ptr %39, ptr %38
  %40 = tail call noundef zeroext i1 @_Z20toku_dbt_is_infinitePK10__toku_dbt(ptr noundef nonnull %..i13)
  br i1 %40, label %.critedge.i18, label %41, !prof !22

41:                                               ; preds = %34
  %42 = tail call noundef zeroext i1 @_Z20toku_dbt_is_infinitePK10__toku_dbt(ptr noundef nonnull %.0.i15)
  br i1 %42, label %.critedge.i18, label %44, !prof !22

.critedge.i18:                                    ; preds = %41, %34
  %43 = tail call noundef i32 @_Z25toku_dbt_infinite_comparePK10__toku_dbtS1_(ptr noundef nonnull %..i13, ptr noundef nonnull %.0.i15)
  br label %_ZNK4toku10comparatorclEPK10__toku_dbtS3_.exit19

44:                                               ; preds = %41
  %45 = getelementptr inbounds nuw i8, ptr %1, i64 16
  %46 = load i8, ptr %45, align 8, !tbaa !23
  %.not.i16 = icmp eq i8 %46, 0
  br i1 %.not.i16, label %59, label %47

47:                                               ; preds = %44
  %48 = load ptr, ptr %..i13, align 8, !tbaa !25
  %49 = load i8, ptr %48, align 1, !tbaa !26
  %50 = sext i8 %49 to i32
  %51 = zext i8 %46 to i32
  %52 = icmp eq i32 %50, %51
  br i1 %52, label %53, label %59

53:                                               ; preds = %47
  %54 = load ptr, ptr %.0.i15, align 8, !tbaa !25
  %55 = load i8, ptr %54, align 1, !tbaa !26
  %56 = icmp eq i8 %55, %49
  br i1 %56, label %57, label %59, !prof !27

57:                                               ; preds = %53
  %58 = tail call noundef i32 @_Z24toku_builtin_compare_funPK10__toku_dbtS1_(ptr noundef nonnull %..i13, ptr noundef nonnull %.0.i15)
  br label %_ZNK4toku10comparatorclEPK10__toku_dbtS3_.exit19

59:                                               ; preds = %53, %47, %44
  %60 = load ptr, ptr %1, align 8, !tbaa !28
  %61 = getelementptr inbounds nuw i8, ptr %1, i64 8
  %62 = load ptr, ptr %61, align 8, !tbaa !29
  %63 = tail call noundef i32 %60(ptr noundef %62, ptr noundef nonnull %..i13, ptr noundef nonnull %.0.i15)
  br label %_ZNK4toku10comparatorclEPK10__toku_dbtS3_.exit19

_ZNK4toku10comparatorclEPK10__toku_dbtS3_.exit19: ; preds = %.critedge.i18, %57, %59
  %.0.i17 = phi i32 [ %43, %.critedge.i18 ], [ %58, %57 ], [ %63, %59 ]
  %64 = icmp sgt i32 %.0.i17, 0
  br i1 %64, label %122, label %65

65:                                               ; preds = %_ZNK4toku10comparatorclEPK10__toku_dbtS3_.exit19
  %66 = load ptr, ptr %35, align 8, !tbaa !14
  %.not.i20 = icmp eq ptr %66, null
  %..i21 = select i1 %.not.i20, ptr %0, ptr %66
  %67 = load ptr, ptr %7, align 8, !tbaa !14
  %.not.i22 = icmp eq ptr %67, null
  %..i23 = select i1 %.not.i22, ptr %2, ptr %67
  %68 = tail call noundef zeroext i1 @_Z20toku_dbt_is_infinitePK10__toku_dbt(ptr noundef nonnull %..i21)
  br i1 %68, label %.critedge.i26, label %69, !prof !22

69:                                               ; preds = %65
  %70 = tail call noundef zeroext i1 @_Z20toku_dbt_is_infinitePK10__toku_dbt(ptr noundef nonnull %..i23)
  br i1 %70, label %.critedge.i26, label %72, !prof !22

.critedge.i26:                                    ; preds = %69, %65
  %71 = tail call noundef i32 @_Z25toku_dbt_infinite_comparePK10__toku_dbtS1_(ptr noundef nonnull %..i21, ptr noundef nonnull %..i23)
  br label %_ZNK4toku10comparatorclEPK10__toku_dbtS3_.exit27

72:                                               ; preds = %69
  %73 = getelementptr inbounds nuw i8, ptr %1, i64 16
  %74 = load i8, ptr %73, align 8, !tbaa !23
  %.not.i24 = icmp eq i8 %74, 0
  br i1 %.not.i24, label %87, label %75

75:                                               ; preds = %72
  %76 = load ptr, ptr %..i21, align 8, !tbaa !25
  %77 = load i8, ptr %76, align 1, !tbaa !26
  %78 = sext i8 %77 to i32
  %79 = zext i8 %74 to i32
  %80 = icmp eq i32 %78, %79
  br i1 %80, label %81, label %87

81:                                               ; preds = %75
  %82 = load ptr, ptr %..i23, align 8, !tbaa !25
  %83 = load i8, ptr %82, align 1, !tbaa !26
  %84 = icmp eq i8 %83, %77
  br i1 %84, label %85, label %87, !prof !27

85:                                               ; preds = %81
  %86 = tail call noundef i32 @_Z24toku_builtin_compare_funPK10__toku_dbtS1_(ptr noundef nonnull %..i21, ptr noundef nonnull %..i23)
  br label %_ZNK4toku10comparatorclEPK10__toku_dbtS3_.exit27

87:                                               ; preds = %81, %75, %72
  %88 = load ptr, ptr %1, align 8, !tbaa !28
  %89 = getelementptr inbounds nuw i8, ptr %1, i64 8
  %90 = load ptr, ptr %89, align 8, !tbaa !29
  %91 = tail call noundef i32 %88(ptr noundef %90, ptr noundef nonnull %..i21, ptr noundef nonnull %..i23)
  br label %_ZNK4toku10comparatorclEPK10__toku_dbtS3_.exit27

_ZNK4toku10comparatorclEPK10__toku_dbtS3_.exit27: ; preds = %.critedge.i26, %85, %87
  %.0.i25 = phi i32 [ %71, %.critedge.i26 ], [ %86, %85 ], [ %91, %87 ]
  %92 = icmp eq i32 %.0.i25, 0
  br i1 %92, label %93, label %121

93:                                               ; preds = %_ZNK4toku10comparatorclEPK10__toku_dbtS3_.exit27
  %94 = load ptr, ptr %4, align 8, !tbaa !15
  %.not.i28 = icmp eq ptr %94, null
  %.0.i29 = select i1 %.not.i28, ptr %6, ptr %94
  %95 = load ptr, ptr %37, align 8, !tbaa !15
  %.not.i30 = icmp eq ptr %95, null
  %.0.i31 = select i1 %.not.i30, ptr %39, ptr %95
  %96 = tail call noundef zeroext i1 @_Z20toku_dbt_is_infinitePK10__toku_dbt(ptr noundef nonnull %.0.i29)
  br i1 %96, label %.critedge.i34, label %97, !prof !22

97:                                               ; preds = %93
  %98 = tail call noundef zeroext i1 @_Z20toku_dbt_is_infinitePK10__toku_dbt(ptr noundef nonnull %.0.i31)
  br i1 %98, label %.critedge.i34, label %100, !prof !22

.critedge.i34:                                    ; preds = %97, %93
  %99 = tail call noundef i32 @_Z25toku_dbt_infinite_comparePK10__toku_dbtS1_(ptr noundef nonnull %.0.i29, ptr noundef nonnull %.0.i31)
  br label %_ZNK4toku10comparatorclEPK10__toku_dbtS3_.exit35

100:                                              ; preds = %97
  %101 = getelementptr inbounds nuw i8, ptr %1, i64 16
  %102 = load i8, ptr %101, align 8, !tbaa !23
  %.not.i32 = icmp eq i8 %102, 0
  br i1 %.not.i32, label %115, label %103

103:                                              ; preds = %100
  %104 = load ptr, ptr %.0.i29, align 8, !tbaa !25
  %105 = load i8, ptr %104, align 1, !tbaa !26
  %106 = sext i8 %105 to i32
  %107 = zext i8 %102 to i32
  %108 = icmp eq i32 %106, %107
  br i1 %108, label %109, label %115

109:                                              ; preds = %103
  %110 = load ptr, ptr %.0.i31, align 8, !tbaa !25
  %111 = load i8, ptr %110, align 1, !tbaa !26
  %112 = icmp eq i8 %111, %105
  br i1 %112, label %113, label %115, !prof !27

113:                                              ; preds = %109
  %114 = tail call noundef i32 @_Z24toku_builtin_compare_funPK10__toku_dbtS1_(ptr noundef nonnull %.0.i29, ptr noundef nonnull %.0.i31)
  br label %_ZNK4toku10comparatorclEPK10__toku_dbtS3_.exit35

115:                                              ; preds = %109, %103, %100
  %116 = load ptr, ptr %1, align 8, !tbaa !28
  %117 = getelementptr inbounds nuw i8, ptr %1, i64 8
  %118 = load ptr, ptr %117, align 8, !tbaa !29
  %119 = tail call noundef i32 %116(ptr noundef %118, ptr noundef nonnull %.0.i29, ptr noundef nonnull %.0.i31)
  br label %_ZNK4toku10comparatorclEPK10__toku_dbtS3_.exit35

_ZNK4toku10comparatorclEPK10__toku_dbtS3_.exit35: ; preds = %.critedge.i34, %113, %115
  %.0.i33 = phi i32 [ %99, %.critedge.i34 ], [ %114, %113 ], [ %119, %115 ]
  %120 = icmp eq i32 %.0.i33, 0
  br i1 %120, label %122, label %121

121:                                              ; preds = %_ZNK4toku10comparatorclEPK10__toku_dbtS3_.exit35, %_ZNK4toku10comparatorclEPK10__toku_dbtS3_.exit27
  br label %122

122:                                              ; preds = %_ZNK4toku10comparatorclEPK10__toku_dbtS3_.exit35, %_ZNK4toku10comparatorclEPK10__toku_dbtS3_.exit19, %_ZNK4toku10comparatorclEPK10__toku_dbtS3_.exit, %121
  %.0 = phi i32 [ 3, %121 ], [ 1, %_ZNK4toku10comparatorclEPK10__toku_dbtS3_.exit ], [ 2, %_ZNK4toku10comparatorclEPK10__toku_dbtS3_.exit19 ], [ 0, %_ZNK4toku10comparatorclEPK10__toku_dbtS3_.exit35 ]
  ret i32 %.0
}